target datalayout = "e-m:e-p270:32:32-p271:32:32-p272:64:64-i64:64-i128:128-f80:128-n8:16:32:64-S128"
target triple = "x86_64-pc-linux-gnu"

%struct._zval_struct = type { %union._zend_value, %union.anon, %union.anon.2 }
%union._zend_value = type { i64 }
%union.anon = type { i32 }
%union.anon.2 = type { i32 }
%struct._zend_execute_data = type { ptr, ptr, ptr, ptr, %struct._zval_struct, ptr, ptr, ptr, ptr }

@.str.6 = private unnamed_addr constant [7 x i8] c"stream\00", align 1

; Function Attrs: nounwind uwtable
define hidden void @zif_stream_isatty(ptr noundef %0, ptr noundef %1) #0 {
  %3 = alloca ptr, align 8
  %4 = alloca ptr, align 8
  %5 = alloca i1, align 1
  %6 = alloca ptr, align 8
  %7 = alloca ptr, align 8
  %8 = alloca i8, align 1
  %9 = alloca ptr, align 8
  %10 = alloca ptr, align 8
  %11 = alloca ptr, align 8
  %12 = alloca ptr, align 8
  %13 = alloca i32, align 4
  %14 = alloca i32, align 4
  %15 = alloca i32, align 4
  %16 = alloca i32, align 4
  %17 = alloca i32, align 4
  %18 = alloca i32, align 4
  %19 = alloca ptr, align 8
  %20 = alloca ptr, align 8
  %21 = alloca i32, align 4
  %22 = alloca ptr, align 8
  %23 = alloca i8, align 1
  %24 = alloca i8, align 1
  %25 = alloca i32, align 4
  store ptr %0, ptr %9, align 8
  store ptr %1, ptr %10, align 8
  br label %26

26:                                               ; preds = %2
  store i32 0, ptr %14, align 4
  store i32 1, ptr %15, align 4
  store i32 1, ptr %16, align 4
  %27 = load ptr, ptr %9, align 8
  %28 = getelementptr inbounds %struct._zend_execute_data, ptr %27, i32 0, i32 4
  %29 = getelementptr inbounds %struct._zval_struct, ptr %28, i32 0, i32 2
  %30 = load i32, ptr %29, align 4
  store i32 %30, ptr %17, align 4
  store i32 0, ptr %18, align 4
  store ptr null, ptr %20, align 8
  store i32 0, ptr %21, align 4
  store ptr null, ptr %22, align 8
  store i8 0, ptr %23, align 1
  store i8 0, ptr %24, align 1
  store i32 0, ptr %25, align 4
  br label %31

31:                                               ; preds = %26
  %32 = load i32, ptr %17, align 4
  %33 = load i32, ptr %15, align 4
  %34 = icmp ult i32 %32, %33
  %35 = xor i1 %34, true
  %36 = xor i1 %35, true
  %37 = zext i1 %36 to i32
  %38 = sext i32 %37 to i64
  %39 = icmp ne i64 %38, 0
  br i1 %39, label %49, label %40

40:                                               ; preds = %31
  %41 = load i32, ptr %17, align 4
  %42 = load i32, ptr %16, align 4
  %43 = icmp ugt i32 %41, %42
  %44 = xor i1 %43, true
  %45 = xor i1 %44, true
  %46 = zext i1 %45 to i32
  %47 = sext i32 %46 to i64
  %48 = icmp ne i64 %47, 0
  br i1 %48, label %49, label %52

49:                                               ; preds = %40, %31
  %50 = load i32, ptr %15, align 4
  %51 = load i32, ptr %16, align 4
  call void @zend_wrong_parameters_count_error(i32 noundef %50, i32 noundef %51)
  store i32 1, ptr %25, align 4
  br label %136

52:                                               ; preds = %40
  %53 = load ptr, ptr %9, align 8
  %54 = getelementptr inbounds %struct._zval_struct, ptr %53, i64 4
  store ptr %54, ptr %19, align 8
  %55 = load i32, ptr %18, align 4
  %56 = add i32 %55, 1
  store i32 %56, ptr %18, align 4
  %57 = load i32, ptr %18, align 4
  %58 = load i32, ptr %15, align 4
  %59 = icmp ule i32 %57, %58
  br i1 %59, label %65, label %60

60:                                               ; preds = %52
  %61 = load i8, ptr %24, align 1
  %62 = trunc i8 %61 to i1
  %63 = zext i1 %62 to i32
  %64 = icmp eq i32 %63, 1
  br label %65

65:                                               ; preds = %60, %52
  %66 = phi i1 [ true, %52 ], [ %64, %60 ]
  call void @llvm.assume(i1 %66)
  %67 = load i32, ptr %18, align 4
  %68 = load i32, ptr %15, align 4
  %69 = icmp ugt i32 %67, %68
  br i1 %69, label %75, label %70

70:                                               ; preds = %65
  %71 = load i8, ptr %24, align 1
  %72 = trunc i8 %71 to i1
  %73 = zext i1 %72 to i32
  %74 = icmp eq i32 %73, 0
  br label %75

75:                                               ; preds = %70, %65
  %76 = phi i1 [ true, %65 ], [ %74, %70 ]
  call void @llvm.assume(i1 %76)
  %77 = load i8, ptr %24, align 1
  %78 = trunc i8 %77 to i1
  br i1 %78, label %79, label %90

79:                                               ; preds = %75
  %80 = load i32, ptr %18, align 4
  %81 = load i32, ptr %17, align 4
  %82 = icmp ugt i32 %80, %81
  %83 = xor i1 %82, true
  %84 = xor i1 %83, true
  %85 = zext i1 %84 to i32
  %86 = sext i32 %85 to i64
  %87 = icmp ne i64 %86, 0
  br i1 %87, label %88, label %89

88:                                               ; preds = %79
  br label %136

89:                                               ; preds = %79
  br label %90

90:                                               ; preds = %89, %75
  %91 = load ptr, ptr %19, align 8
  %92 = getelementptr inbounds %struct._zval_struct, ptr %91, i32 1
  store ptr %92, ptr %19, align 8
  %93 = load ptr, ptr %19, align 8
  store ptr %93, ptr %20, align 8
  %94 = load ptr, ptr %20, align 8
  store ptr %94, ptr %6, align 8
  store ptr %11, ptr %7, align 8
  store i8 0, ptr %8, align 1
  %95 = load ptr, ptr %6, align 8
  store ptr %95, ptr %3, align 8
  %96 = load ptr, ptr %3, align 8
  %97 = getelementptr inbounds %struct._zval_struct, ptr %96, i32 0, i32 1
  %98 = load i8, ptr %97, align 8
  %99 = zext i8 %98 to i32
  %100 = icmp eq i32 %99, 9
  br i1 %100, label %101, label %104

101:                                              ; preds = %90
  %102 = load ptr, ptr %6, align 8
  %103 = load ptr, ptr %7, align 8
  store ptr %102, ptr %103, align 8
  br label %117

104:                                              ; preds = %90
  %105 = load i8, ptr %8, align 1
  %106 = trunc i8 %105 to i1
  br i1 %106, label %107, label %116

107:                                              ; preds = %104
  %108 = load ptr, ptr %6, align 8
  store ptr %108, ptr %4, align 8
  %109 = load ptr, ptr %4, align 8
  %110 = getelementptr inbounds %struct._zval_struct, ptr %109, i32 0, i32 1
  %111 = load i8, ptr %110, align 8
  %112 = zext i8 %111 to i32
  %113 = icmp eq i32 %112, 1
  br i1 %113, label %114, label %116

114:                                              ; preds = %107
  %115 = load ptr, ptr %7, align 8
  store ptr null, ptr %115, align 8
  br label %117

116:                                              ; preds = %107, %104
  store i1 false, ptr %5, align 1
  br label %118

117:                                              ; preds = %114, %101
  store i1 true, ptr %5, align 1
  br label %118

118:                                              ; preds = %117, %116
  %119 = load i1, ptr %5, align 1
  %120 = xor i1 %119, true
  %121 = xor i1 %120, true
  %122 = xor i1 %121, true
  %123 = zext i1 %122 to i32
  %124 = sext i32 %123 to i64
  %125 = icmp ne i64 %124, 0
  br i1 %125, label %126, label %127

126:                                              ; preds = %118
  store i32 14, ptr %21, align 4
  store i32 9, ptr %25, align 4
  br label %136

127:                                              ; preds = %118
  %128 = load i32, ptr %18, align 4
  %129 = load i32, ptr %16, align 4
  %130 = icmp eq i32 %128, %129
  br i1 %130, label %134, label %131

131:                                              ; preds = %127
  %132 = load i32, ptr %16, align 4
  %133 = icmp eq i32 %132, -1
  br label %134

134:                                              ; preds = %131, %127
  %135 = phi i1 [ true, %127 ], [ %133, %131 ]
  call void @llvm.assume(i1 %135)
  br label %136

136:                                              ; preds = %134, %126, %88, %49
  %137 = load i32, ptr %25, align 4
  %138 = icmp ne i32 %137, 0
  %139 = xor i1 %138, true
  %140 = xor i1 %139, true
  %141 = zext i1 %140 to i32
  %142 = sext i32 %141 to i64
  %143 = icmp ne i64 %142, 0
  br i1 %143, label %144, label %150

144:                                              ; preds = %136
  %145 = load i32, ptr %25, align 4
  %146 = load i32, ptr %18, align 4
  %147 = load ptr, ptr %22, align 8
  %148 = load i32, ptr %21, align 4
  %149 = load ptr, ptr %20, align 8
  call void @zend_wrong_parameter_error(i32 noundef %145, i32 noundef %146, ptr noundef %147, i32 noundef %148, ptr noundef %149)
  br label %190

150:                                              ; preds = %136
  br label %151

151:                                              ; preds = %150
  br label %152

152:                                              ; preds = %151
  %153 = load ptr, ptr %11, align 8
  %154 = call i32 @php_file_le_stream()
  %155 = call i32 @php_file_le_pstream()
  %156 = call ptr @zend_fetch_resource2_ex(ptr noundef %153, ptr noundef @.str.6, i32 noundef %154, i32 noundef %155)
  store ptr %156, ptr %12, align 8
  %157 = icmp eq ptr %156, null
  br i1 %157, label %158, label %159

158:                                              ; preds = %152
  br label %190

159:                                              ; preds = %152
  br label %160

160:                                              ; preds = %159
  %161 = load ptr, ptr %12, align 8
  %162 = call i32 @_php_stream_cast(ptr noundef %161, i32 noundef 536870915, ptr noundef null, i32 noundef 0)
  %163 = icmp eq i32 %162, 0
  br i1 %163, label %164, label %167

164:                                              ; preds = %160
  %165 = load ptr, ptr %12, align 8
  %166 = call i32 @_php_stream_cast(ptr noundef %165, i32 noundef 536870915, ptr noundef %13, i32 noundef 0)
  br label %182

167:                                              ; preds = %160
  %168 = load ptr, ptr %12, align 8
  %169 = call i32 @_php_stream_cast(ptr noundef %168, i32 noundef 536870913, ptr noundef null, i32 noundef 0)
  %170 = icmp eq i32 %169, 0
  br i1 %170, label %171, label %174

171:                                              ; preds = %167
  %172 = load ptr, ptr %12, align 8
  %173 = call i32 @_php_stream_cast(ptr noundef %172, i32 noundef 536870913, ptr noundef %13, i32 noundef 0)
  br label %181

174:                                              ; preds = %167
  br label %175

175:                                              ; preds = %174
  br label %176

176:                                              ; preds = %175
  %177 = load ptr, ptr %10, align 8
  %178 = getelementptr inbounds %struct._zval_struct, ptr %177, i32 0, i32 1
  store i32 2, ptr %178, align 8
  br label %179

179:                                              ; preds = %176
  br label %190

180:                                              ; No predecessors!
  br label %181

181:                                              ; preds = %180, %171
  br label %182

182:                                              ; preds = %181, %164
  br label %183

183:                                              ; preds = %182
  %184 = load i32, ptr %13, align 4
  %185 = call i32 @isatty(i32 noundef %184) #9
  %186 = icmp ne i32 %185, 0
  %187 = select i1 %186, i32 3, i32 2
  %188 = load ptr, ptr %10, align 8
  %189 = getelementptr inbounds %struct._zval_struct, ptr %188, i32 0, i32 1
  store i32 %187, ptr %189, align 8
  br label %190

190:                                              ; preds = %183, %179, %158, %144
  ret void
}