; Function Attrs: nounwind uwtable
define hidden void @zif_stream_isatty(ptr noundef %0, ptr nocapture noundef writeonly %1) local_unnamed_addr #0 {
  %3 = alloca i32, align 4
  %4 = getelementptr inbounds i8, ptr %0, i64 44
  %5 = load i32, ptr %4, align 4
  %cond = icmp eq i32 %5, 1
  br i1 %cond, label %7, label %6

6:                                                ; preds = %2
  tail call void @zend_wrong_parameters_count_error(i32 noundef 1, i32 noundef 1) #10
  br label %11

7:                                                ; preds = %2
  %8 = getelementptr inbounds i8, ptr %0, i64 80
  %9 = getelementptr inbounds i8, ptr %0, i64 88
  %10 = load i8, ptr %9, align 8
  %.not52 = icmp eq i8 %10, 9
  br i1 %.not52, label %12, label %11

11:                                               ; preds = %6, %7
  %.047.ph = phi ptr [ %8, %7 ], [ null, %6 ]
  %.046.ph = phi i32 [ 14, %7 ], [ 0, %6 ]
  %.045.ph = phi i32 [ 1, %7 ], [ 0, %6 ]
  %.0.ph = phi i32 [ 9, %7 ], [ 1, %6 ]
  tail call void @zend_wrong_parameter_error(i32 noundef %.0.ph, i32 noundef %.045.ph, ptr noundef null, i32 noundef %.046.ph, ptr noundef %.047.ph) #10
  br label %31

12:                                               ; preds = %7
  %13 = tail call i32 @php_file_le_stream() #10
  %14 = tail call i32 @php_file_le_pstream() #10
  %15 = tail call ptr @zend_fetch_resource2_ex(ptr noundef nonnull %8, ptr noundef nonnull @.str.6, i32 noundef %13, i32 noundef %14) #10
  %16 = icmp eq ptr %15, null
  br i1 %16, label %31, label %17

17:                                               ; preds = %12
  %18 = tail call i32 @_php_stream_cast(ptr noundef nonnull %15, i32 noundef 536870915, ptr noundef null, i32 noundef 0) #10
  %19 = icmp eq i32 %18, 0
  br i1 %19, label %25, label %20

20:                                               ; preds = %17
  %21 = tail call i32 @_php_stream_cast(ptr noundef nonnull %15, i32 noundef 536870913, ptr noundef null, i32 noundef 0) #10
  %22 = icmp eq i32 %21, 0
  br i1 %22, label %25, label %23

23:                                               ; preds = %20
  %24 = getelementptr inbounds i8, ptr %1, i64 8
  store i32 2, ptr %24, align 8
  br label %31

25:                                               ; preds = %20, %17
  %.sink = phi i32 [ 536870915, %17 ], [ 536870913, %20 ]
  %26 = call i32 @_php_stream_cast(ptr noundef nonnull %15, i32 noundef %.sink, ptr noundef nonnull %3, i32 noundef 0) #10
  %27 = load i32, ptr %3, align 4
  %28 = call i32 @isatty(i32 noundef %27) #10
  %.not54 = icmp eq i32 %28, 0
  %29 = select i1 %.not54, i32 2, i32 3
  %30 = getelementptr inbounds i8, ptr %1, i64 8
  store i32 %29, ptr %30, align 8
  br label %31

31:                                               ; preds = %12, %25, %23, %11
  ret void
}